target datalayout = "e-m:e-p270:32:32-p271:32:32-p272:64:64-i64:64-i128:128-f80:128-n8:16:32:64-S128"
target triple = "x86_64-pc-linux-gnu"

@_ZN5cmsysL23SystemToolsManagerCountE = internal global i32 0, align 4
@_ZN5cmsysL18SystemToolsStaticsE = internal global ptr null, align 8

; Function Attrs: noinline noreturn nounwind uwtable
define linkonce_odr hidden void @__clang_call_terminate(ptr noundef %0) #16 comdat {
  %2 = call ptr @__cxa_begin_catch(ptr %0) #1
  call void @_ZSt9terminatev() #21
  unreachable
}

; Function Attrs: mustprogress nounwind uwtable
define dso_local void @_ZN5cmsys11SystemTools13ClassFinalizeEv() #4 align 2 {
  %1 = load ptr, ptr @_ZN5cmsysL18SystemToolsStaticsE, align 8, !tbaa !179
  %2 = icmp eq ptr %1, null
  br i1 %2, label %4, label %3

3:                                                ; preds = %0
  call void @_ZdlPvm(ptr noundef %1, i64 noundef 1) #26
  br label %4

4:                                                ; preds = %3, %0
  ret void
}

; Function Attrs: mustprogress nounwind uwtable
define dso_local void @_ZN5cmsys18SystemToolsManagerD2Ev(ptr noundef nonnull align 1 dereferenceable(1) %0) unnamed_addr #4 align 2 personality ptr @__gxx_personality_v0 {
  %2 = alloca ptr, align 8
  store ptr %0, ptr %2, align 8, !tbaa !177
  %3 = load i32, ptr @_ZN5cmsysL23SystemToolsManagerCountE, align 4, !tbaa !41
  %4 = add i32 %3, -1
  store i32 %4, ptr @_ZN5cmsysL23SystemToolsManagerCountE, align 4, !tbaa !41
  %5 = icmp eq i32 %4, 0
  br i1 %5, label %6, label %8

6:                                                ; preds = %1
  invoke void @_ZN5cmsys11SystemTools13ClassFinalizeEv()
          to label %7 unwind label %9

7:                                                ; preds = %6
  br label %8

8:                                                ; preds = %7, %1
  ret void

9:                                                ; preds = %6
  %10 = landingpad { ptr, i32 }
          catch ptr null
  %11 = extractvalue { ptr, i32 } %10, 0
  call void @__clang_call_terminate(ptr %11) #21
  unreachable
}