; Function Attrs: mustprogress nounwind uwtable
define dso_local void @_ZN5cmsys18SystemToolsManagerD2Ev(ptr nonnull readnone align 1 captures(none) %0) unnamed_addr #7 align 2 personality ptr @__gxx_personality_v0 {
  %2 = load i32, ptr @_ZN5cmsysL23SystemToolsManagerCountE, align 4, !tbaa !42
  %3 = add i32 %2, -1
  store i32 %3, ptr @_ZN5cmsysL23SystemToolsManagerCountE, align 4, !tbaa !42
  %4 = icmp eq i32 %3, 0
  br i1 %4, label %5, label %_ZN5cmsys11SystemTools13ClassFinalizeEv.exit

5:                                                ; preds = %1
  %6 = load ptr, ptr @_ZN5cmsysL18SystemToolsStaticsE, align 8, !tbaa !276
  %7 = icmp eq ptr %6, null
  br i1 %7, label %_ZN5cmsys11SystemTools13ClassFinalizeEv.exit, label %8

8:                                                ; preds = %5
  tail call void @_ZdlPvm(ptr noundef nonnull %6, i64 noundef 1) #41
  br label %_ZN5cmsys11SystemTools13ClassFinalizeEv.exit

_ZN5cmsys11SystemTools13ClassFinalizeEv.exit:     ; preds = %8, %5, %1
  ret void
}